target datalayout = "e-m:e-p270:32:32-p271:32:32-p272:64:64-i64:64-i128:128-f80:128-n8:16:32:64-S128"
target triple = "x86_64-pc-linux-gnu"

%struct.CONF_VALUE = type { ptr, ptr, ptr }
%struct.BIT_STRING_BITNAME_st = type { i32, ptr, ptr }

; Function Attrs: inlinehint nounwind uwtable
define internal ptr @ossl_check_CONF_VALUE_freefunc_type(ptr noundef %0) #3 {
  %2 = alloca ptr, align 8
  store ptr %0, ptr %2, align 8, !tbaa !20
  %3 = load ptr, ptr %2, align 8, !tbaa !20
  ret ptr %3
}

; Function Attrs: inlinehint nounwind uwtable
define internal ptr @ossl_check_CONF_VALUE_sk_type(ptr noundef %0) #3 {
  %2 = alloca ptr, align 8
  store ptr %0, ptr %2, align 8, !tbaa !10
  %3 = load ptr, ptr %2, align 8, !tbaa !10
  ret ptr %3
}

; Function Attrs: inlinehint nounwind uwtable
define internal ptr @ossl_check_const_CONF_VALUE_sk_type(ptr noundef %0) #3 {
  %2 = alloca ptr, align 8
  store ptr %0, ptr %2, align 8, !tbaa !10
  %3 = load ptr, ptr %2, align 8, !tbaa !10
  ret ptr %3
}

; Function Attrs: nounwind uwtable
define internal i32 @set_reasons(ptr noundef %0, ptr noundef %1) #0 {
  %3 = alloca i32, align 4
  %4 = alloca ptr, align 8
  %5 = alloca ptr, align 8
  %6 = alloca ptr, align 8
  %7 = alloca ptr, align 8
  %8 = alloca ptr, align 8
  %9 = alloca i32, align 4
  %10 = alloca i32, align 4
  %11 = alloca i32, align 4
  store ptr %0, ptr %4, align 8, !tbaa !91
  store ptr %1, ptr %5, align 8, !tbaa !57
  call void @llvm.lifetime.start.p0(i64 8, ptr %6) #5
  store ptr null, ptr %6, align 8, !tbaa !10
  call void @llvm.lifetime.start.p0(i64 8, ptr %7) #5
  call void @llvm.lifetime.start.p0(i64 8, ptr %8) #5
  call void @llvm.lifetime.start.p0(i64 4, ptr %9) #5
  call void @llvm.lifetime.start.p0(i64 4, ptr %10) #5
  store i32 0, ptr %10, align 4, !tbaa !16
  %12 = load ptr, ptr %5, align 8, !tbaa !57
  %13 = call ptr @X509V3_parse_list(ptr noundef %12)
  store ptr %13, ptr %6, align 8, !tbaa !10
  %14 = load ptr, ptr %6, align 8, !tbaa !10
  %15 = icmp eq ptr %14, null
  br i1 %15, label %16, label %17

16:                                               ; preds = %2
  store i32 0, ptr %3, align 4
  store i32 1, ptr %11, align 4
  br label %90

17:                                               ; preds = %2
  %18 = load ptr, ptr %4, align 8, !tbaa !91
  %19 = load ptr, ptr %18, align 8, !tbaa !93
  %20 = icmp ne ptr %19, null
  br i1 %20, label %21, label %22

21:                                               ; preds = %17
  br label %85

22:                                               ; preds = %17
  store i32 0, ptr %9, align 4, !tbaa !16
  br label %23

23:                                               ; preds = %81, %22
  %24 = load i32, ptr %9, align 4, !tbaa !16
  %25 = load ptr, ptr %6, align 8, !tbaa !10
  %26 = call ptr @ossl_check_const_CONF_VALUE_sk_type(ptr noundef %25)
  %27 = call i32 @OPENSSL_sk_num(ptr noundef %26)
  %28 = icmp slt i32 %24, %27
  br i1 %28, label %29, label %84

29:                                               ; preds = %23
  %30 = load ptr, ptr %6, align 8, !tbaa !10
  %31 = call ptr @ossl_check_const_CONF_VALUE_sk_type(ptr noundef %30)
  %32 = load i32, ptr %9, align 4, !tbaa !16
  %33 = call ptr @OPENSSL_sk_value(ptr noundef %31, i32 noundef %32)
  %34 = getelementptr inbounds nuw %struct.CONF_VALUE, ptr %33, i32 0, i32 1
  %35 = load ptr, ptr %34, align 8, !tbaa !24
  store ptr %35, ptr %8, align 8, !tbaa !57
  %36 = load ptr, ptr %4, align 8, !tbaa !91
  %37 = load ptr, ptr %36, align 8, !tbaa !93
  %38 = icmp eq ptr %37, null
  br i1 %38, label %39, label %47

39:                                               ; preds = %29
  %40 = call ptr @ASN1_BIT_STRING_new()
  %41 = load ptr, ptr %4, align 8, !tbaa !91
  store ptr %40, ptr %41, align 8, !tbaa !93
  %42 = load ptr, ptr %4, align 8, !tbaa !91
  %43 = load ptr, ptr %42, align 8, !tbaa !93
  %44 = icmp eq ptr %43, null
  br i1 %44, label %45, label %46

45:                                               ; preds = %39
  br label %85

46:                                               ; preds = %39
  br label %47

47:                                               ; preds = %46, %29
  store ptr @reason_flags, ptr %7, align 8, !tbaa !94
  br label %48

48:                                               ; preds = %71, %47
  %49 = load ptr, ptr %7, align 8, !tbaa !94
  %50 = getelementptr inbounds nuw %struct.BIT_STRING_BITNAME_st, ptr %49, i32 0, i32 1
  %51 = load ptr, ptr %50, align 8, !tbaa !96
  %52 = icmp ne ptr %51, null
  br i1 %52, label %53, label %74

53:                                               ; preds = %48
  %54 = load ptr, ptr %7, align 8, !tbaa !94
  %55 = getelementptr inbounds nuw %struct.BIT_STRING_BITNAME_st, ptr %54, i32 0, i32 2
  %56 = load ptr, ptr %55, align 8, !tbaa !98
  %57 = load ptr, ptr %8, align 8, !tbaa !57
  %58 = call i32 @strcmp(ptr noundef %56, ptr noundef %57) #6
  %59 = icmp eq i32 %58, 0
  br i1 %59, label %60, label %70

60:                                               ; preds = %53
  %61 = load ptr, ptr %4, align 8, !tbaa !91
  %62 = load ptr, ptr %61, align 8, !tbaa !93
  %63 = load ptr, ptr %7, align 8, !tbaa !94
  %64 = getelementptr inbounds nuw %struct.BIT_STRING_BITNAME_st, ptr %63, i32 0, i32 0
  %65 = load i32, ptr %64, align 8, !tbaa !99
  %66 = call i32 @ASN1_BIT_STRING_set_bit(ptr noundef %62, i32 noundef %65, i32 noundef 1)
  %67 = icmp ne i32 %66, 0
  br i1 %67, label %69, label %68

68:                                               ; preds = %60
  br label %85

69:                                               ; preds = %60
  br label %74

70:                                               ; preds = %53
  br label %71

71:                                               ; preds = %70
  %72 = load ptr, ptr %7, align 8, !tbaa !94
  %73 = getelementptr inbounds nuw %struct.BIT_STRING_BITNAME_st, ptr %72, i32 1
  store ptr %73, ptr %7, align 8, !tbaa !94
  br label %48, !llvm.loop !100

74:                                               ; preds = %69, %48
  %75 = load ptr, ptr %7, align 8, !tbaa !94
  %76 = getelementptr inbounds nuw %struct.BIT_STRING_BITNAME_st, ptr %75, i32 0, i32 1
  %77 = load ptr, ptr %76, align 8, !tbaa !96
  %78 = icmp eq ptr %77, null
  br i1 %78, label %79, label %80

79:                                               ; preds = %74
  br label %85

80:                                               ; preds = %74
  br label %81

81:                                               ; preds = %80
  %82 = load i32, ptr %9, align 4, !tbaa !16
  %83 = add nsw i32 %82, 1
  store i32 %83, ptr %9, align 4, !tbaa !16
  br label %23, !llvm.loop !101

84:                                               ; preds = %23
  store i32 1, ptr %10, align 4, !tbaa !16
  br label %85

85:                                               ; preds = %84, %79, %68, %45, %21
  %86 = load ptr, ptr %6, align 8, !tbaa !10
  %87 = call ptr @ossl_check_CONF_VALUE_sk_type(ptr noundef %86)
  %88 = call ptr @ossl_check_CONF_VALUE_freefunc_type(ptr noundef @X509V3_conf_free)
  call void @OPENSSL_sk_pop_free(ptr noundef %87, ptr noundef %88)
  %89 = load i32, ptr %10, align 4, !tbaa !16
  store i32 %89, ptr %3, align 4
  store i32 1, ptr %11, align 4
  br label %90

90:                                               ; preds = %85, %16
  call void @llvm.lifetime.end.p0(i64 4, ptr %10) #5
  call void @llvm.lifetime.end.p0(i64 4, ptr %9) #5
  call void @llvm.lifetime.end.p0(i64 8, ptr %8) #5
  call void @llvm.lifetime.end.p0(i64 8, ptr %7) #5
  call void @llvm.lifetime.end.p0(i64 8, ptr %6) #5
  %91 = load i32, ptr %3, align 4
  ret i32 %91
}