; Function Attrs: nounwind uwtable
define internal fastcc range(i32 0, 2) i32 @set_reasons(ptr noundef nonnull captures(none) %0, ptr noundef %1) unnamed_addr #1 {
  %3 = tail call ptr @X509V3_parse_list(ptr noundef %1) #5
  %4 = icmp eq ptr %3, null
  br i1 %4, label %35, label %5

5:                                                ; preds = %2
  %6 = load ptr, ptr %0, align 8, !tbaa !56
  %.not = icmp eq ptr %6, null
  br i1 %.not, label %.preheader, label %.thread

.preheader:                                       ; preds = %5
  %7 = tail call i32 @OPENSSL_sk_num(ptr noundef nonnull %3) #5
  %8 = icmp sgt i32 %7, 0
  br i1 %8, label %.lr.ph, label %.thread

9:                                                ; preds = %28
  %10 = add nuw nsw i32 %.02029, 1
  %11 = tail call i32 @OPENSSL_sk_num(ptr noundef nonnull %3) #5
  %12 = icmp slt i32 %10, %11
  br i1 %12, label %.lr.ph, label %.thread, !llvm.loop !57

.lr.ph:                                           ; preds = %.preheader, %9
  %.02029 = phi i32 [ %10, %9 ], [ 0, %.preheader ]
  %13 = tail call ptr @OPENSSL_sk_value(ptr noundef nonnull %3, i32 noundef %.02029) #5
  %14 = getelementptr inbounds nuw i8, ptr %13, i64 8
  %15 = load ptr, ptr %14, align 8, !tbaa !9
  %16 = load ptr, ptr %0, align 8, !tbaa !56
  %17 = icmp eq ptr %16, null
  br i1 %17, label %18, label %21

18:                                               ; preds = %.lr.ph
  %19 = tail call ptr @ASN1_BIT_STRING_new() #5
  store ptr %19, ptr %0, align 8, !tbaa !56
  %20 = icmp eq ptr %19, null
  br i1 %20, label %.thread, label %21

21:                                               ; preds = %18, %.lr.ph
  %22 = phi ptr [ %19, %18 ], [ %16, %.lr.ph ]
  br label %23

23:                                               ; preds = %21, %31
  %.02228 = phi ptr [ @reason_flags, %21 ], [ %32, %31 ]
  %24 = getelementptr inbounds nuw i8, ptr %.02228, i64 16
  %25 = load ptr, ptr %24, align 8, !tbaa !58
  %26 = tail call i32 @strcmp(ptr noundef nonnull dereferenceable(1) %25, ptr noundef nonnull dereferenceable(1) %15) #6
  %27 = icmp eq i32 %26, 0
  br i1 %27, label %28, label %31

28:                                               ; preds = %23
  %29 = load i32, ptr %.02228, align 8, !tbaa !25
  %30 = tail call i32 @ASN1_BIT_STRING_set_bit(ptr noundef nonnull %22, i32 noundef %29, i32 noundef 1) #5
  %.not25 = icmp eq i32 %30, 0
  br i1 %.not25, label %.thread, label %9

31:                                               ; preds = %23
  %32 = getelementptr inbounds nuw i8, ptr %.02228, i64 24
  %33 = getelementptr inbounds nuw i8, ptr %.02228, i64 32
  %34 = load ptr, ptr %33, align 8, !tbaa !28
  %.not24 = icmp eq ptr %34, null
  br i1 %.not24, label %.thread, label %23, !llvm.loop !59

.thread:                                          ; preds = %18, %28, %9, %31, %.preheader, %5
  %.0 = phi i32 [ 0, %5 ], [ 1, %.preheader ], [ 0, %31 ], [ 0, %18 ], [ 0, %28 ], [ 1, %9 ]
  tail call void @OPENSSL_sk_pop_free(ptr noundef nonnull %3, ptr noundef nonnull @X509V3_conf_free) #5
  br label %35

35:                                               ; preds = %2, %.thread
  %.021 = phi i32 [ %.0, %.thread ], [ 0, %2 ]
  ret i32 %.021
}